Certificate:
    Data:
        Version: 1 (0x0)
        Serial Number:
            1e:1a:d8:33:67:e0:96:6f:8d:89:22:f9:88:2f:54:e9:5a:23:93:67
        Signature Algorithm: NULL
        Issuer: CN = certificate-authority
        Validity
            Not Before: Jan  7 05:27:44 2022 GMT
            Not After : Jan  5 05:27:44 2032 GMT
        Subject: CN = certificate-authority
        Subject Public Key Info:
            Public Key Algorithm: rsaEncryption
                RSA Public-Key: (2048 bit)
                Modulus:
                    00:b7:2b:b2:8a:b3:4c:c5:67:50:a8:37:80:c8:57:
                    95:c9:dd:11:b3:11:26:d9:1c:9a:d7:6b:d0:39:b0:
                    42:f3:d0:9a:0b:60:6d:82:ad:c2:7b:a6:9d:da:c6:
                    0e:51:72:6a:00:47:66:38:ba:19:c3:4d:e6:29:2d:
                    a5:f8:24:e7:26:2c:23:dd:0b:f5:7b:a5:c3:cc:02:
                    66:a1:5a:64:57:cb:12:13:a2:12:c0:c2:50:98:26:
                    41:14:c3:fd:6c:a8:ec:5a:5f:c9:a0:f6:42:83:54:
                    9f:c3:b7:a5:85:64:8b:8a:96:17:06:d3:0c:75:22:
                    33:46:d4:b7:b1:b3:c2:57:11:26:68:b6:f8:97:05:
                    85:9a:00:d1:8d:f9:7d:d7:89:77:c7:09:30:bc:f3:
                    9d:1f:9b:ed:ec:af:1e:55:db:cb:91:9f:79:28:8c:
                    e7:e7:22:e9:fb:55:e0:7a:04:6a:30:af:cb:0e:ee:
                    fb:2f:ac:69:24:72:23:38:be:04:9d:29:6d:b8:da:
                    08:f3:50:fd:ab:5c:de:eb:8d:6c:0f:d8:e9:e3:b2:
                    8b:5e:d5:62:20:e1:23:1c:0e:b1:c6:73:2f:7b:39:
                    8d:7b:e0:4b:b5:62:4f:54:f1:e6:ff:81:14:c9:ee:
                    5c:23:7a:70:1c:d6:d4:67:50:3e:25:b6:5b:5d:2d:
                    6b:0d
                Exponent: 65537 (0x10001)
    Signature Algorithm: NULL
-----BEGIN CERTIFICATE-----
MIIDITCCAgmgAwIBAgIUHhrYM2fglm+NiSL5iC9U6Vojk2cwDQYJKoZIhvcNAQEL
BQAwIDEeMBwGA1UEAwwVY2VydGlmaWNhdGUtYXV0aG9yaXR5MB4XDTIyMDEwNzA1
Mjc0NFoXDTMyMDEwNTA1Mjc0NFowIDEeMBwGA1UEAwwVY2VydGlmaWNhdGUtYXV0
aG9yaXR5MIIBIjANBgkqhkiG9w0BAQEFAAOCAQ8AMIIBCgKCAQEAtyuyirNMxWdQ
qDeAyFeVyd0RsxEm2Rya12vQObBC89CaC2Btgq3Ce6ad2sYOUXJqAEdmOLoZw03m
KS2l+CTnJiwj3Qv1e6XDzAJmoVpkV8sSE6ISwMJQmCZBFMP9bKjsWl/JoPZCg1Sf
w7elhWSLipYXBtMMdSIzRtS3sbPCVxEmaLb4lwWFmgDRjfl914l3xwkwvPOdH5vt
7K8eVdvLkZ95KIzn5yLp+1XgegRqMK/LDu77L6xpJHIjOL4EnSltuNoI81D9q1ze
641sD9jp47KLXtViIOEjHA6xxnMvezmNe+BLtWJPVPHm/4EUye5cI3pwHNbUZ1A+
JbZbXS1rDQIDAQABo1MwUTAdBgNVHQ4EFgQUKSCVtY52hMiDmM/r748AHjeqZ08w
HwYDVR0jBBgwFoAUKSCVtY52hMiDmM/r748AHjeqZ08wDwYDVR0TAQH/BAUwAwEB
/zANBgkqhkiG9w0BAQsFAAOCAQEABp9tXItP4M4Hggu1fL29aCtnKjyX0jFWoRVC
oDluuCLGw67hMppn9aO3AzK6b+SXO78dl0kOYoIePnG72A8qUEUbA1Ol3x181rk7
vgRGI2Cpi+FbCDYRm4Tk4hH2da0n5TqmjOehjlIAWZ0bz1x55HgvLbvhNDJRjduy
LF54YQ+SXsKzD1oVdUrFLthmRaeqKf87eOq0BnlveEEuaqtL0vTHfP7UBSMKBJl/
y9VrOl4ammu8uHnnglnv2VcHnwOfps9L6z/WvVx/aoC3AAw1yFDergWzc3JlE0P3
Sshr95BUeTkUpBOFJPPVWQBLWep/3dMVoD2XhXsjnVCC9x4DGw==
-----END CERTIFICATE-----
