Certificate:
    Data:
        Version: 1 (0x0)
        Serial Number:
            1d:87:76:80:2f:c8:0d:d3:09:4c:a5:d1:57:9d:71:d4:ec:19:01:a0
        Signature Algorithm: NULL
        Issuer: CN = pg-client
        Validity
            Not Before: Jan  7 05:27:44 2022 GMT
            Not After : Jan  5 05:27:44 2032 GMT
        Subject: CN = pg-client
        Subject Public Key Info:
            Public Key Algorithm: rsaEncryption
                RSA Public-Key: (2048 bit)
                Modulus:
                    00:c1:c0:af:a8:81:14:ea:b0:ee:65:a9:56:88:d3:
                    c9:8c:da:c7:0b:48:d0:17:3c:44:0e:1b:f1:57:06:
                    8a:f4:52:9d:ed:44:35:59:f5:97:d6:10:28:82:d2:
                    5e:d9:65:94:ae:18:b0:49:e5:b8:af:4d:65:05:8d:
                    ec:97:78:75:d9:61:5c:1f:19:a3:f8:f1:24:82:4d:
                    79:54:8c:e1:40:4f:7e:91:21:7d:e8:ee:f4:ff:b4:
                    70:a4:2f:8a:27:d6:a9:86:4b:66:46:b1:ed:4d:64:
                    f6:f7:c8:02:86:6c:d4:52:86:50:0b:8b:4b:60:64:
                    ba:45:d0:a9:1a:11:06:2d:ab:ad:f1:95:ed:3f:fd:
                    cd:a0:67:57:4b:25:a4:cf:7a:7e:96:c4:ff:d2:8d:
                    1f:06:6b:3f:5a:1e:fa:bd:1e:56:f8:cb:27:0b:c7:
                    bf:db:04:73:8d:cc:be:e5:0b:ff:74:17:13:f3:bb:
                    43:55:71:42:be:9f:90:be:40:dd:7c:84:e6:50:4a:
                    85:80:89:21:d4:84:85:e9:cc:a2:56:17:fd:b2:6b:
                    ef:12:2b:16:b6:f5:81:16:61:44:7c:7a:a3:3f:be:
                    d6:3a:43:4a:cc:aa:3d:e2:8d:97:0a:a8:bc:ed:7c:
                    81:ef:dd:ad:b3:d2:bb:a3:e3:3c:6f:e2:8e:45:57:
                    ab:15
                Exponent: 65537 (0x10001)
    Signature Algorithm: NULL
-----BEGIN CERTIFICATE-----
MIICuzCCAaMCFFGR0/6OztMyC+65QIUERd/WHp+JMA0GCSqGSIb3DQEBCwUAMCAx
HjAcBgNVBAMMFWNlcnRpZmljYXRlLWF1dGhvcml0eTAeFw0yMjAxMDcwNTI3NDRa
Fw0zMjAxMDUwNTI3NDRaMBQxEjAQBgNVBAMMCXBnLWNsaWVudDCCASIwDQYJKoZI
hvcNAQEBBQADggEPADCCAQoCggEBAMHAr6iBFOqw7mWpVojTyYzaxwtI0Bc8RA4b
8VcGivRSne1ENVn1l9YQKILSXtlllK4YsEnluK9NZQWN7Jd4ddlhXB8Zo/jxJIJN
eVSM4UBPfpEhfeju9P+0cKQviifWqYZLZkax7U1k9vfIAoZs1FKGUAuLS2BkukXQ
qRoRBi2rrfGV7T/9zaBnV0slpM96fpbE/9KNHwZrP1oe+r0eVvjLJwvHv9sEc43M
vuUL/3QXE/O7Q1VxQr6fkL5A3XyE5lBKhYCJIdSEhenMolYX/bJr7xIrFrb1gRZh
RHx6oz++1jpDSsyqPeKNlwqovO18ge/drbPSu6PjPG/ijkVXqxUCAwEAATANBgkq
hkiG9w0BAQsFAAOCAQEAS7MIKhDEceoqRf+wXi2C2/WeZ2iFT2Dpw4HnHtgq2Dp1
13oIcMBv57x4/Vzqzha9JOF2IAn0xliSnYaRi8aD8J3YE8uRBdr8Msq78La7uNR7
TGB1Bd5BSt6QCARwiBbZhIUrPAhL1MM4ocZFD74JCx+OGc0UfxBbrBWNHP82LJQb
Hgp510f96/aw8OE0O/PvHkd26iO27WQQcPqH/TNMMvPE1YeUe8QxQl10lr9tQTEZ
ehfz8iKdjtEJzUaqrM4QR/t5pwntQGKnR0HSsUvM382qfGht8YM4IGrDEOZnX+ND
pAhRNRwd9T7s01+oZFyRVnaNcP3iZLMupm0YL3Bisw==
-----END CERTIFICATE-----
